target datalayout = "e-m:e-p270:32:32-p271:32:32-p272:64:64-i64:64-i128:128-f80:128-n8:16:32:64-S128"
target triple = "x86_64-pc-linux-gnu"

%struct.test_fixture = type { ptr, ptr, ptr, i32, i32, ptr }

@.str.14 = private unnamed_addr constant [34 x i8] c"../openssl/test/cmp_client_test.c\00", align 1
@__func__.test_exec_REQ_ses_poll = private unnamed_addr constant [23 x i8] c"test_exec_REQ_ses_poll\00", align 1

; Function Attrs: inlinehint nounwind uwtable
define internal ptr @ossl_check_X509_sk_type(ptr noundef %0) #3 {
  %2 = alloca ptr, align 8
  store ptr %0, ptr %2, align 8, !tbaa !32
  %3 = load ptr, ptr %2, align 8, !tbaa !32
  ret ptr %3
}

; Function Attrs: nounwind uwtable
define internal i32 @execute_exec_GENM_ses_test(ptr noundef %0) #0 {
  %2 = alloca ptr, align 8
  store ptr %0, ptr %2, align 8, !tbaa !17
  %3 = load ptr, ptr %2, align 8, !tbaa !17
  %4 = call i32 @execute_exec_GENM_ses_test_single(ptr noundef %3)
  %5 = icmp ne i32 %4, 0
  br i1 %5, label %6, label %16

6:                                                ; preds = %1
  %7 = load ptr, ptr %2, align 8, !tbaa !17
  %8 = getelementptr inbounds nuw %struct.test_fixture, ptr %7, i32 0, i32 1
  %9 = load ptr, ptr %8, align 8, !tbaa !29
  %10 = call i32 @OSSL_CMP_CTX_reinit(ptr noundef %9)
  %11 = icmp ne i32 %10, 0
  br i1 %11, label %12, label %16

12:                                               ; preds = %6
  %13 = load ptr, ptr %2, align 8, !tbaa !17
  %14 = call i32 @execute_exec_GENM_ses_test_single(ptr noundef %13)
  %15 = icmp ne i32 %14, 0
  br label %16

16:                                               ; preds = %12, %6, %1
  %17 = phi i1 [ false, %6 ], [ false, %1 ], [ %15, %12 ]
  %18 = zext i1 %17 to i32
  ret i32 %18
}

; Function Attrs: nounwind uwtable
define internal void @tear_down(ptr noundef %0) #0 {
  %2 = alloca ptr, align 8
  store ptr %0, ptr %2, align 8, !tbaa !17
  %3 = load ptr, ptr %2, align 8, !tbaa !17
  %4 = getelementptr inbounds nuw %struct.test_fixture, ptr %3, i32 0, i32 1
  %5 = load ptr, ptr %4, align 8, !tbaa !29
  call void @OSSL_CMP_CTX_free(ptr noundef %5)
  %6 = load ptr, ptr %2, align 8, !tbaa !17
  %7 = getelementptr inbounds nuw %struct.test_fixture, ptr %6, i32 0, i32 2
  %8 = load ptr, ptr %7, align 8, !tbaa !21
  call void @ossl_cmp_mock_srv_free(ptr noundef %8)
  %9 = load ptr, ptr %2, align 8, !tbaa !17
  %10 = getelementptr inbounds nuw %struct.test_fixture, ptr %9, i32 0, i32 5
  %11 = load ptr, ptr %10, align 8, !tbaa !28
  %12 = call ptr @ossl_check_X509_sk_type(ptr noundef %11)
  call void @OPENSSL_sk_free(ptr noundef %12)
  %13 = load ptr, ptr %2, align 8, !tbaa !17
  call void @CRYPTO_free(ptr noundef %13, ptr noundef @.str.14, i32 noundef 51)
  ret void
}

; Function Attrs: nounwind uwtable
define internal i32 @test_exec_REQ_ses_poll(i32 noundef %0, i32 noundef %1, i32 noundef %2, i32 noundef %3, i32 noundef %4) #0 {
  %6 = alloca i32, align 4
  %7 = alloca i32, align 4
  %8 = alloca i32, align 4
  %9 = alloca i32, align 4
  %10 = alloca i32, align 4
  %11 = alloca i32, align 4
  %12 = alloca ptr, align 8
  %13 = alloca i32, align 4
  %14 = alloca i32, align 4
  store i32 %0, ptr %7, align 4, !tbaa !19
  store i32 %1, ptr %8, align 4, !tbaa !19
  store i32 %2, ptr %9, align 4, !tbaa !19
  store i32 %3, ptr %10, align 4, !tbaa !19
  store i32 %4, ptr %11, align 4, !tbaa !19
  call void @llvm.lifetime.start.p0(i64 8, ptr %12) #4
  %15 = call ptr @set_up(ptr noundef @__func__.test_exec_REQ_ses_poll)
  store ptr %15, ptr %12, align 8, !tbaa !17
  call void @llvm.lifetime.start.p0(i64 4, ptr %13) #4
  store i32 0, ptr %13, align 4, !tbaa !19
  %16 = load ptr, ptr %12, align 8, !tbaa !17
  %17 = icmp eq ptr %16, null
  br i1 %17, label %18, label %19

18:                                               ; preds = %5
  store i32 0, ptr %6, align 4
  store i32 1, ptr %14, align 4
  br label %65

19:                                               ; preds = %5
  %20 = load i32, ptr %7, align 4, !tbaa !19
  %21 = load ptr, ptr %12, align 8, !tbaa !17
  %22 = getelementptr inbounds nuw %struct.test_fixture, ptr %21, i32 0, i32 3
  store i32 %20, ptr %22, align 8, !tbaa !27
  %23 = load i32, ptr %11, align 4, !tbaa !19
  %24 = load ptr, ptr %12, align 8, !tbaa !17
  %25 = getelementptr inbounds nuw %struct.test_fixture, ptr %24, i32 0, i32 4
  store i32 %23, ptr %25, align 4, !tbaa !26
  %26 = load ptr, ptr %12, align 8, !tbaa !17
  %27 = getelementptr inbounds nuw %struct.test_fixture, ptr %26, i32 0, i32 2
  %28 = load ptr, ptr %27, align 8, !tbaa !21
  %29 = load i32, ptr %8, align 4, !tbaa !19
  %30 = call i32 @ossl_cmp_mock_srv_set_checkAfterTime(ptr noundef %28, i32 noundef %29)
  %31 = load ptr, ptr %12, align 8, !tbaa !17
  %32 = getelementptr inbounds nuw %struct.test_fixture, ptr %31, i32 0, i32 2
  %33 = load ptr, ptr %32, align 8, !tbaa !21
  %34 = load i32, ptr %9, align 4, !tbaa !19
  %35 = call i32 @ossl_cmp_mock_srv_set_pollCount(ptr noundef %33, i32 noundef %34)
  %36 = load ptr, ptr %12, align 8, !tbaa !17
  %37 = getelementptr inbounds nuw %struct.test_fixture, ptr %36, i32 0, i32 1
  %38 = load ptr, ptr %37, align 8, !tbaa !29
  %39 = load i32, ptr %10, align 4, !tbaa !19
  %40 = call i32 @OSSL_CMP_CTX_set_option(ptr noundef %38, i32 noundef 12, i32 noundef %39)
  %41 = load i32, ptr %7, align 4, !tbaa !19
  %42 = icmp eq i32 %41, 0
  br i1 %42, label %43, label %51

43:                                               ; preds = %19
  %44 = load ptr, ptr %12, align 8, !tbaa !17
  %45 = icmp ne ptr %44, null
  br i1 %45, label %46, label %50

46:                                               ; preds = %43
  %47 = load ptr, ptr %12, align 8, !tbaa !17
  %48 = call i32 @execute_exec_certrequest_ses_test(ptr noundef %47)
  store i32 %48, ptr %13, align 4, !tbaa !19
  %49 = load ptr, ptr %12, align 8, !tbaa !17
  call void @tear_down(ptr noundef %49)
  br label %50

50:                                               ; preds = %46, %43
  br label %63

51:                                               ; preds = %19
  %52 = load i32, ptr %7, align 4, !tbaa !19
  %53 = icmp eq i32 %52, 21
  br i1 %53, label %54, label %62

54:                                               ; preds = %51
  %55 = load ptr, ptr %12, align 8, !tbaa !17
  %56 = icmp ne ptr %55, null
  br i1 %56, label %57, label %61

57:                                               ; preds = %54
  %58 = load ptr, ptr %12, align 8, !tbaa !17
  %59 = call i32 @execute_exec_GENM_ses_test(ptr noundef %58)
  store i32 %59, ptr %13, align 4, !tbaa !19
  %60 = load ptr, ptr %12, align 8, !tbaa !17
  call void @tear_down(ptr noundef %60)
  br label %61

61:                                               ; preds = %57, %54
  br label %62

62:                                               ; preds = %61, %51
  br label %63

63:                                               ; preds = %62, %50
  %64 = load i32, ptr %13, align 4, !tbaa !19
  store i32 %64, ptr %6, align 4
  store i32 1, ptr %14, align 4
  br label %65

65:                                               ; preds = %63, %18
  call void @llvm.lifetime.end.p0(i64 4, ptr %13) #4
  call void @llvm.lifetime.end.p0(i64 8, ptr %12) #4
  %66 = load i32, ptr %6, align 4
  ret i32 %66
}