; Function Attrs: nounwind uwtable
define internal fastcc i32 @test_exec_REQ_ses_poll(i32 noundef range(i32 0, 22) %0, i32 noundef range(i32 1, 3) %1, i32 noundef range(i32 1, 4) %2, i32 noundef range(i32 0, 8) %3, i32 noundef range(i32 0, 4) %4) unnamed_addr #0 {
  %6 = tail call fastcc ptr @set_up(ptr noundef nonnull @__func__.test_exec_REQ_ses_poll)
  %7 = icmp eq ptr %6, null
  br i1 %7, label %34, label %8

8:                                                ; preds = %5
  %9 = getelementptr inbounds nuw i8, ptr %6, i64 24
  store i32 %0, ptr %9, align 8, !tbaa !26
  %10 = getelementptr inbounds nuw i8, ptr %6, i64 28
  store i32 %4, ptr %10, align 4, !tbaa !17
  %11 = getelementptr inbounds nuw i8, ptr %6, i64 16
  %12 = load ptr, ptr %11, align 8, !tbaa !24
  %13 = tail call i32 @ossl_cmp_mock_srv_set_checkAfterTime(ptr noundef %12, i32 noundef %1) #4
  %14 = load ptr, ptr %11, align 8, !tbaa !24
  %15 = tail call i32 @ossl_cmp_mock_srv_set_pollCount(ptr noundef %14, i32 noundef %2) #4
  %16 = getelementptr inbounds nuw i8, ptr %6, i64 8
  %17 = load ptr, ptr %16, align 8, !tbaa !23
  %18 = tail call i32 @OSSL_CMP_CTX_set_option(ptr noundef %17, i32 noundef 12, i32 noundef %3) #4
  switch i32 %0, label %34 [
    i32 0, label %19
    i32 21, label %21
  ]

19:                                               ; preds = %8
  %20 = tail call fastcc i32 @execute_exec_certrequest_ses_test(ptr noundef %6)
  br label %.sink.split

21:                                               ; preds = %8
  %22 = tail call fastcc i32 @execute_exec_GENM_ses_test_single(ptr noundef nonnull readonly %6)
  %.not.i = icmp eq i32 %22, 0
  br i1 %.not.i, label %.sink.split, label %23

23:                                               ; preds = %21
  %24 = load ptr, ptr %16, align 8, !tbaa !23
  %25 = tail call i32 @OSSL_CMP_CTX_reinit(ptr noundef %24) #4
  %.not3.i = icmp eq i32 %25, 0
  br i1 %.not3.i, label %.sink.split, label %26

26:                                               ; preds = %23
  %27 = tail call fastcc i32 @execute_exec_GENM_ses_test_single(ptr noundef nonnull readonly %6)
  %28 = icmp ne i32 %27, 0
  %29 = zext i1 %28 to i32
  br label %.sink.split

.sink.split:                                      ; preds = %26, %23, %21, %19
  %.021.ph = phi i32 [ %20, %19 ], [ 0, %23 ], [ 0, %21 ], [ %29, %26 ]
  %30 = load ptr, ptr %16, align 8, !tbaa !23
  tail call void @OSSL_CMP_CTX_free(ptr noundef %30) #4
  %31 = load ptr, ptr %11, align 8, !tbaa !24
  tail call void @ossl_cmp_mock_srv_free(ptr noundef %31) #4
  %32 = getelementptr inbounds nuw i8, ptr %6, i64 32
  %33 = load ptr, ptr %32, align 8, !tbaa !25
  tail call void @OPENSSL_sk_free(ptr noundef %33) #4
  tail call void @CRYPTO_free(ptr noundef nonnull %6, ptr noundef nonnull @.str.14, i32 noundef 51) #4
  br label %34

34:                                               ; preds = %.sink.split, %8, %5
  %.021 = phi i32 [ 0, %5 ], [ 0, %8 ], [ %.021.ph, %.sink.split ]
  ret i32 %.021
}